; Function Attrs: mustprogress nofree norecurse nosync nounwind willreturn memory(read, inaccessiblemem: none) uwtable
define noundef double @_ZNK6casadi6Scpgen17dualInfeasibilityEPNS_12ScpgenMemoryE(ptr noundef nonnull readonly align 8 captures(none) dereferenceable(2417) %0, ptr noundef readonly captures(none) %1) local_unnamed_addr #15 align 2 {
  %3 = getelementptr inbounds nuw i8, ptr %0, i64 1648
  %4 = load i64, ptr %3, align 8, !tbaa !180
  %5 = getelementptr inbounds nuw i8, ptr %1, i64 440
  %6 = load ptr, ptr %5, align 8, !tbaa !406
  %.not.i = icmp ne ptr %6, null
  %7 = icmp sgt i64 %4, 0
  %or.cond.i = and i1 %7, %.not.i
  br i1 %or.cond.i, label %.lr.ph.i, label %_ZN6casadi13casadi_norm_1IdEET_xPKS1_.exit

.lr.ph.i:                                         ; preds = %2, %.lr.ph.i
  %.111.i = phi double [ %11, %.lr.ph.i ], [ 0.000000e+00, %2 ]
  %.0610.i = phi i64 [ %12, %.lr.ph.i ], [ 0, %2 ]
  %.079.i = phi ptr [ %8, %.lr.ph.i ], [ %6, %2 ]
  %8 = getelementptr inbounds nuw i8, ptr %.079.i, i64 8
  %9 = load double, ptr %.079.i, align 8, !tbaa !425
  %10 = tail call double @llvm.fabs.f64(double %9)
  %11 = fadd double %.111.i, %10
  %12 = add nuw nsw i64 %.0610.i, 1
  %exitcond.not.i = icmp eq i64 %12, %4
  br i1 %exitcond.not.i, label %_ZN6casadi13casadi_norm_1IdEET_xPKS1_.exit, label %.lr.ph.i, !llvm.loop !439

_ZN6casadi13casadi_norm_1IdEET_xPKS1_.exit:       ; preds = %.lr.ph.i, %2
  %.0.i = phi double [ 0.000000e+00, %2 ], [ %11, %.lr.ph.i ]
  ret double %.0.i
}